target datalayout = "e-m:e-p270:32:32-p271:32:32-p272:64:64-i64:64-i128:128-f80:128-n8:16:32:64-S128"
target triple = "x86_64-pc-linux-gnu"

%"class.std::basic_ostream" = type { ptr, %"class.std::basic_ios" }
%"class.std::basic_ios" = type { %"class.std::ios_base", ptr, i8, i8, ptr, ptr, ptr, ptr }
%"class.std::ios_base" = type { ptr, i64, i64, i32, i32, i32, ptr, %"struct.std::ios_base::_Words", [8 x %"struct.std::ios_base::_Words"], i32, ptr, %"class.std::locale" }
%"struct.std::ios_base::_Words" = type { ptr, i64 }
%"class.std::locale" = type { ptr }
%"class.std::__cxx11::basic_string" = type { %"struct.std::__cxx11::basic_string<char>::_Alloc_hider", i64, %union.anon }
%"struct.std::__cxx11::basic_string<char>::_Alloc_hider" = type { ptr }
%union.anon = type { i64, [8 x i8] }
%class.V3ErrorCode = type { i8 }
%class.VNType = type { i16 }
%class.AstNode = type { ptr, ptr, ptr, ptr, ptr, ptr, ptr, ptr, %class.VNType, %struct.anon, i8, i32, ptr, ptr, ptr, ptr, %class.VNUser, i32, i32, %class.VNUser, %class.VNUser, i32, i32, %class.VNUser }
%struct.anon = type { i8 }
%class.VNUser = type { %union.anon.3 }
%union.anon.3 = type { ptr }
%class.VNRelinker = type <{ ptr, ptr, ptr, i8, [7 x i8] }>

@_ZN7AstNode12s_editCntGblE = dso_local global i64 0, align 8
@.str.557 = private unnamed_addr constant [111 x i8] c"generated/home/dtcxzyw/WorkSpace/Projects/compilers/llvm-opt-benchmark/bench/verilator/verilator/src/V3Ast.cpp\00", align 1
@_ZSt4cout = external global %"class.std::basic_ostream", align 8
@.str.618 = private unnamed_addr constant [3 x i8] c"- \00", align 1
@.str.619 = private unnamed_addr constant [21 x i8] c" EDIT:      relink: \00", align 1
@.str.620 = private unnamed_addr constant [22 x i8] c"Need non-empty linker\00", align 1
@.str.621 = private unnamed_addr constant [25 x i8] c"New node already linked?\00", align 1
@.str.622 = private unnamed_addr constant [13 x i8] c"-relinkNew: \00", align 1
@.str.623 = private unnamed_addr constant [13 x i8] c"-relinkTre: \00", align 1
@.str.624 = private unnamed_addr constant [43 x i8] c"Relink of node without any link to change.\00", align 1
@.str.625 = private unnamed_addr constant [13 x i8] c"-relinkOut: \00", align 1

; Function Attrs: mustprogress nounwind uwtable
define dso_local void @_ZN7AstNode15debugTreeChangeEPKS_PKcib(ptr noundef %0, ptr noundef %1, i32 noundef %2, i1 noundef zeroext %3) #5 align 2 {
  %5 = alloca ptr, align 8
  %6 = alloca ptr, align 8
  %7 = alloca i32, align 4
  %8 = alloca i8, align 1
  store ptr %0, ptr %5, align 8
  store ptr %1, ptr %6, align 8
  store i32 %2, ptr %7, align 4
  %9 = zext i1 %3 to i8
  store i8 %9, ptr %8, align 1
  ret void
}

; Function Attrs: mustprogress nounwind uwtable
define linkonce_odr dso_local void @_ZN7AstNode12editCountIncEv(ptr noundef nonnull align 8 dereferenceable(152) %0) #5 comdat align 2 {
  %2 = alloca ptr, align 8
  store ptr %0, ptr %2, align 8
  %3 = load i64, ptr @_ZN7AstNode12s_editCntGblE, align 8
  %4 = add i64 %3, 1
  store i64 %4, ptr @_ZN7AstNode12s_editCntGblE, align 8
  ret void
}

; Function Attrs: mustprogress nounwind uwtable
define linkonce_odr dso_local void @_ZN11V3ErrorCodeC2ENS_2enE(ptr noundef nonnull align 1 dereferenceable(1) %0, i8 noundef zeroext %1) unnamed_addr #5 comdat align 2 {
  %3 = alloca ptr, align 8
  %4 = alloca i8, align 1
  store ptr %0, ptr %3, align 8
  store i8 %1, ptr %4, align 1
  %5 = load ptr, ptr %3, align 8
  %6 = getelementptr inbounds %class.V3ErrorCode, ptr %5, i32 0, i32 0
  %7 = load i8, ptr %4, align 1
  store i8 %7, ptr %6, align 1
  ret void
}

; Function Attrs: mustprogress uwtable
define dso_local void @_ZN7AstNode6relinkEP10VNRelinker(ptr noundef nonnull align 8 dereferenceable(152) %0, ptr noundef %1) #4 align 2 personality ptr @__gxx_personality_v0 {
  %3 = alloca ptr, align 8
  %4 = alloca ptr, align 8
  %5 = alloca %"class.std::__cxx11::basic_string", align 8
  %6 = alloca ptr, align 8
  %7 = alloca i32, align 4
  %8 = alloca ptr, align 8
  %9 = alloca %class.V3ErrorCode, align 1
  %10 = alloca %class.V3ErrorCode, align 1
  %11 = alloca ptr, align 8
  %12 = alloca %class.V3ErrorCode, align 1
  store ptr %0, ptr %3, align 8
  store ptr %1, ptr %4, align 8
  %13 = load ptr, ptr %3, align 8
  %14 = call noundef i32 @_ZL5debugv()
  %15 = icmp sgt i32 %14, 8
  br i1 %15, label %16, label %34

16:                                               ; preds = %2
  br label %17

17:                                               ; preds = %16
  %18 = call noundef i32 @_ZL5debugv()
  %19 = icmp sge i32 %18, 0
  %20 = xor i1 %19, true
  %21 = xor i1 %20, true
  br i1 %21, label %22, label %32

22:                                               ; preds = %17
  %23 = call noundef nonnull align 8 dereferenceable(8) ptr @_ZStlsISt11char_traitsIcEERSt13basic_ostreamIcT_ES5_PKc(ptr noundef nonnull align 8 dereferenceable(8) @_ZSt4cout, ptr noundef @.str.618)
  call void @_ZN7V3Error7lineStrB5cxx11EPKci(ptr dead_on_unwind writable sret(%"class.std::__cxx11::basic_string") align 8 %5, ptr noundef @.str.557, i32 noundef 661)
  %24 = invoke noundef nonnull align 8 dereferenceable(8) ptr @_ZStlsIcSt11char_traitsIcESaIcEERSt13basic_ostreamIT_T0_ES7_RKNSt7__cxx1112basic_stringIS4_S5_T1_EE(ptr noundef nonnull align 8 dereferenceable(8) %23, ptr noundef nonnull align 8 dereferenceable(32) %5)
          to label %25 unwind label %28

25:                                               ; preds = %22
  %26 = invoke noundef nonnull align 8 dereferenceable(8) ptr @_ZStlsISt11char_traitsIcEERSt13basic_ostreamIcT_ES5_PKc(ptr noundef nonnull align 8 dereferenceable(8) %24, ptr noundef @.str.619)
          to label %27 unwind label %28

27:                                               ; preds = %25
  call void @_ZNSt7__cxx1112basic_stringIcSt11char_traitsIcESaIcEED1Ev(ptr noundef nonnull align 8 dereferenceable(32) %5) #3
  br label %32

28:                                               ; preds = %25, %22
  %29 = landingpad { ptr, i32 }
          cleanup
  %30 = extractvalue { ptr, i32 } %29, 0
  store ptr %30, ptr %6, align 8
  %31 = extractvalue { ptr, i32 } %29, 1
  store i32 %31, ptr %7, align 4
  call void @_ZNSt7__cxx1112basic_stringIcSt11char_traitsIcESaIcEED1Ev(ptr noundef nonnull align 8 dereferenceable(32) %5) #3
  br label %137

32:                                               ; preds = %27, %17
  br label %33

33:                                               ; preds = %32
  call void @_ZNK7AstNode8dumpPtrsERSo(ptr noundef nonnull align 8 dereferenceable(152) %13, ptr noundef nonnull align 8 dereferenceable(8) @_ZSt4cout)
  br label %34

34:                                               ; preds = %33, %2
  store ptr %13, ptr %8, align 8
  br label %35

35:                                               ; preds = %34
  %36 = load ptr, ptr %4, align 8
  %37 = icmp ne ptr %36, null
  br i1 %37, label %38, label %43

38:                                               ; preds = %35
  %39 = load ptr, ptr %4, align 8
  %40 = getelementptr inbounds %class.VNRelinker, ptr %39, i32 0, i32 1
  %41 = load ptr, ptr %40, align 8
  %42 = icmp ne ptr %41, null
  br label %43

43:                                               ; preds = %38, %35
  %44 = phi i1 [ false, %35 ], [ %42, %38 ]
  %45 = xor i1 %44, true
  %46 = xor i1 %45, true
  %47 = xor i1 %46, true
  br i1 %47, label %48, label %54

48:                                               ; preds = %43
  call void @_ZN11V3ErrorCodeC2ENS_2enE(ptr noundef nonnull align 1 dereferenceable(1) %9, i8 noundef zeroext 4)
  %49 = getelementptr inbounds %class.V3ErrorCode, ptr %9, i32 0, i32 0
  %50 = load i8, ptr %49, align 1
  %51 = call noundef nonnull align 8 dereferenceable(112) ptr @_ZN7V3Error19v3errorPrepFileLineB5cxx11E11V3ErrorCodePKcib(i8 %50, ptr noundef @.str.557, i32 noundef 665, i1 noundef zeroext false)
  %52 = call noundef nonnull align 8 dereferenceable(112) ptr @_ZN7V3Error10v3errorStrB5cxx11Ev()
  %53 = call noundef nonnull align 8 dereferenceable(8) ptr @_ZStlsISt11char_traitsIcEERSt13basic_ostreamIcT_ES5_PKc(ptr noundef nonnull align 8 dereferenceable(8) %52, ptr noundef @.str.620)
  call void @_ZNK7AstNode15v3errorEndFatalERNSt7__cxx1119basic_ostringstreamIcSt11char_traitsIcESaIcEEE(ptr noundef nonnull align 8 dereferenceable(152) %13, ptr noundef nonnull align 8 dereferenceable(112) %53) #17
  unreachable

54:                                               ; preds = %43
  br label %55

55:                                               ; preds = %54
  br label %56

56:                                               ; preds = %55
  %57 = load ptr, ptr %8, align 8
  %58 = getelementptr inbounds %class.AstNode, ptr %57, i32 0, i32 2
  %59 = load ptr, ptr %58, align 8
  %60 = icmp ne ptr %59, null
  %61 = xor i1 %60, true
  %62 = xor i1 %61, true
  %63 = xor i1 %62, true
  %64 = xor i1 %63, true
  br i1 %64, label %65, label %72

65:                                               ; preds = %56
  %66 = load ptr, ptr %8, align 8
  call void @_ZN11V3ErrorCodeC2ENS_2enE(ptr noundef nonnull align 1 dereferenceable(1) %10, i8 noundef zeroext 4)
  %67 = getelementptr inbounds %class.V3ErrorCode, ptr %10, i32 0, i32 0
  %68 = load i8, ptr %67, align 1
  %69 = call noundef nonnull align 8 dereferenceable(112) ptr @_ZN7V3Error19v3errorPrepFileLineB5cxx11E11V3ErrorCodePKcib(i8 %68, ptr noundef @.str.557, i32 noundef 666, i1 noundef zeroext false)
  %70 = call noundef nonnull align 8 dereferenceable(112) ptr @_ZN7V3Error10v3errorStrB5cxx11Ev()
  %71 = call noundef nonnull align 8 dereferenceable(8) ptr @_ZStlsISt11char_traitsIcEERSt13basic_ostreamIcT_ES5_PKc(ptr noundef nonnull align 8 dereferenceable(8) %70, ptr noundef @.str.621)
  call void @_ZNK7AstNode15v3errorEndFatalERNSt7__cxx1119basic_ostringstreamIcSt11char_traitsIcESaIcEEE(ptr noundef nonnull align 8 dereferenceable(152) %66, ptr noundef nonnull align 8 dereferenceable(112) %71) #17
  unreachable

72:                                               ; preds = %56
  br label %73

73:                                               ; preds = %72
  %74 = load ptr, ptr %8, align 8
  call void @_ZN7AstNode12editCountIncEv(ptr noundef nonnull align 8 dereferenceable(152) %74)
  %75 = call noundef i32 @_ZL5debugv()
  %76 = icmp sgt i32 %75, 8
  br i1 %76, label %77, label %80

77:                                               ; preds = %73
  %78 = load ptr, ptr %4, align 8
  call void @_ZNK10VNRelinker4dumpERSo(ptr noundef nonnull align 8 dereferenceable(32) %78, ptr noundef nonnull align 8 dereferenceable(8) @_ZSt4cout)
  %79 = call noundef nonnull align 8 dereferenceable(8) ptr @_ZNSolsEPFRSoS_E(ptr noundef nonnull align 8 dereferenceable(8) @_ZSt4cout, ptr noundef @_ZSt4endlIcSt11char_traitsIcEERSt13basic_ostreamIT_T0_ES6_)
  br label %80

80:                                               ; preds = %77, %73
  %81 = load ptr, ptr %4, align 8
  %82 = getelementptr inbounds %class.VNRelinker, ptr %81, i32 0, i32 1
  %83 = load ptr, ptr %82, align 8
  store ptr %83, ptr %11, align 8
  call void @_ZN7AstNode15debugTreeChangeEPKS_PKcib(ptr noundef %13, ptr noundef @.str.622, i32 noundef 675, i1 noundef zeroext true)
  %84 = load ptr, ptr %11, align 8
  call void @_ZN7AstNode15debugTreeChangeEPKS_PKcib(ptr noundef %84, ptr noundef @.str.623, i32 noundef 676, i1 noundef zeroext true)
  %85 = load ptr, ptr %4, align 8
  %86 = getelementptr inbounds %class.VNRelinker, ptr %85, i32 0, i32 3
  %87 = load i8, ptr %86, align 8
  %88 = zext i8 %87 to i32
  switch i32 %88, label %108 [
    i32 1, label %89
    i32 2, label %92
    i32 3, label %96
    i32 4, label %100
    i32 5, label %104
  ]

89:                                               ; preds = %80
  %90 = load ptr, ptr %11, align 8
  %91 = load ptr, ptr %8, align 8
  call void @_ZN7AstNode11addNextHereEPS_(ptr noundef nonnull align 8 dereferenceable(152) %90, ptr noundef %91)
  br label %114

92:                                               ; preds = %80
  %93 = load ptr, ptr %11, align 8
  %94 = getelementptr inbounds %class.AstNode, ptr %93, i32 0, i32 3
  %95 = load ptr, ptr %8, align 8
  call void @_ZN7AstNode13relinkOneLinkERPS_S0_(ptr noundef nonnull align 8 dereferenceable(8) %94, ptr noundef %95)
  br label %114

96:                                               ; preds = %80
  %97 = load ptr, ptr %11, align 8
  %98 = getelementptr inbounds %class.AstNode, ptr %97, i32 0, i32 4
  %99 = load ptr, ptr %8, align 8
  call void @_ZN7AstNode13relinkOneLinkERPS_S0_(ptr noundef nonnull align 8 dereferenceable(8) %98, ptr noundef %99)
  br label %114

100:                                              ; preds = %80
  %101 = load ptr, ptr %11, align 8
  %102 = getelementptr inbounds %class.AstNode, ptr %101, i32 0, i32 5
  %103 = load ptr, ptr %8, align 8
  call void @_ZN7AstNode13relinkOneLinkERPS_S0_(ptr noundef nonnull align 8 dereferenceable(8) %102, ptr noundef %103)
  br label %114

104:                                              ; preds = %80
  %105 = load ptr, ptr %11, align 8
  %106 = getelementptr inbounds %class.AstNode, ptr %105, i32 0, i32 6
  %107 = load ptr, ptr %8, align 8
  call void @_ZN7AstNode13relinkOneLinkERPS_S0_(ptr noundef nonnull align 8 dereferenceable(8) %106, ptr noundef %107)
  br label %114

108:                                              ; preds = %80
  call void @_ZN11V3ErrorCodeC2ENS_2enE(ptr noundef nonnull align 1 dereferenceable(1) %12, i8 noundef zeroext 4)
  %109 = getelementptr inbounds %class.V3ErrorCode, ptr %12, i32 0, i32 0
  %110 = load i8, ptr %109, align 1
  %111 = call noundef nonnull align 8 dereferenceable(112) ptr @_ZN7V3Error19v3errorPrepFileLineB5cxx11E11V3ErrorCodePKcib(i8 %110, ptr noundef @.str.557, i32 noundef 684, i1 noundef zeroext false)
  %112 = call noundef nonnull align 8 dereferenceable(112) ptr @_ZN7V3Error10v3errorStrB5cxx11Ev()
  %113 = call noundef nonnull align 8 dereferenceable(8) ptr @_ZStlsISt11char_traitsIcEERSt13basic_ostreamIcT_ES5_PKc(ptr noundef nonnull align 8 dereferenceable(8) %112, ptr noundef @.str.624)
  call void @_ZNK7AstNode15v3errorEndFatalERNSt7__cxx1119basic_ostringstreamIcSt11char_traitsIcESaIcEEE(ptr noundef nonnull align 8 dereferenceable(152) %13, ptr noundef nonnull align 8 dereferenceable(112) %113) #17
  unreachable

114:                                              ; preds = %104, %100, %96, %92, %89
  %115 = load ptr, ptr %11, align 8
  %116 = load ptr, ptr %8, align 8
  %117 = getelementptr inbounds %class.AstNode, ptr %116, i32 0, i32 2
  store ptr %115, ptr %117, align 8
  %118 = load ptr, ptr %4, align 8
  %119 = getelementptr inbounds %class.VNRelinker, ptr %118, i32 0, i32 1
  store ptr null, ptr %119, align 8
  %120 = load ptr, ptr %4, align 8
  %121 = getelementptr inbounds %class.VNRelinker, ptr %120, i32 0, i32 2
  %122 = load ptr, ptr %121, align 8
  %123 = icmp ne ptr %122, null
  br i1 %123, label %124, label %134

124:                                              ; preds = %114
  %125 = load ptr, ptr %4, align 8
  %126 = getelementptr inbounds %class.VNRelinker, ptr %125, i32 0, i32 2
  %127 = load ptr, ptr %126, align 8
  %128 = load ptr, ptr %8, align 8
  %129 = getelementptr inbounds %class.AstNode, ptr %128, i32 0, i32 7
  store ptr %127, ptr %129, align 8
  %130 = load ptr, ptr %8, align 8
  %131 = load ptr, ptr %8, align 8
  %132 = getelementptr inbounds %class.AstNode, ptr %131, i32 0, i32 7
  %133 = load ptr, ptr %132, align 8
  store ptr %130, ptr %133, align 8
  br label %134

134:                                              ; preds = %124, %114
  %135 = load ptr, ptr %4, align 8
  %136 = getelementptr inbounds %class.VNRelinker, ptr %135, i32 0, i32 1
  store ptr null, ptr %136, align 8
  call void @_ZN7AstNode15debugTreeChangeEPKS_PKcib(ptr noundef %13, ptr noundef @.str.625, i32 noundef 701, i1 noundef zeroext true)
  ret void

137:                                              ; preds = %28
  %138 = load ptr, ptr %6, align 8
  %139 = load i32, ptr %7, align 4
  %140 = insertvalue { ptr, i32 } poison, ptr %138, 0
  %141 = insertvalue { ptr, i32 } %140, i32 %139, 1
  resume { ptr, i32 } %141
}