; Function Attrs: mustprogress uwtable
define dso_local void @_ZN7AstNode6relinkEP10VNRelinker(ptr noundef nonnull align 8 dereferenceable(152) %0, ptr noundef %1) local_unnamed_addr #4 align 2 personality ptr @__gxx_personality_v0 {
  %3 = alloca %"class.std::__cxx11::basic_string", align 8
  %4 = tail call noundef i32 @_ZL5debugv()
  %5 = icmp sgt i32 %4, 8
  br i1 %5, label %6, label %18

6:                                                ; preds = %2
  %7 = tail call noundef i32 @_ZL5debugv()
  %8 = icmp sgt i32 %7, -1
  br i1 %8, label %9, label %17

9:                                                ; preds = %6
  %10 = tail call noundef nonnull align 8 dereferenceable(8) ptr @_ZStlsISt11char_traitsIcEERSt13basic_ostreamIcT_ES5_PKc(ptr noundef nonnull align 8 dereferenceable(8) @_ZSt4cout, ptr noundef nonnull @.str.618)
  call void @_ZN7V3Error7lineStrB5cxx11EPKci(ptr dead_on_unwind nonnull writable sret(%"class.std::__cxx11::basic_string") align 8 %3, ptr noundef nonnull @.str.557, i32 noundef 661)
  %11 = invoke noundef nonnull align 8 dereferenceable(8) ptr @_ZStlsIcSt11char_traitsIcESaIcEERSt13basic_ostreamIT_T0_ES7_RKNSt7__cxx1112basic_stringIS4_S5_T1_EE(ptr noundef nonnull align 8 dereferenceable(8) %10, ptr noundef nonnull align 8 dereferenceable(32) %3)
          to label %12 unwind label %15

12:                                               ; preds = %9
  %13 = invoke noundef nonnull align 8 dereferenceable(8) ptr @_ZStlsISt11char_traitsIcEERSt13basic_ostreamIcT_ES5_PKc(ptr noundef nonnull align 8 dereferenceable(8) %11, ptr noundef nonnull @.str.619)
          to label %14 unwind label %15

14:                                               ; preds = %12
  call void @_ZNSt7__cxx1112basic_stringIcSt11char_traitsIcESaIcEED1Ev(ptr noundef nonnull align 8 dereferenceable(32) %3) #24
  br label %17

15:                                               ; preds = %12, %9
  %16 = landingpad { ptr, i32 }
          cleanup
  call void @_ZNSt7__cxx1112basic_stringIcSt11char_traitsIcESaIcEED1Ev(ptr noundef nonnull align 8 dereferenceable(32) %3) #24
  resume { ptr, i32 } %16

17:                                               ; preds = %6, %14
  call void @_ZNK7AstNode8dumpPtrsERSo(ptr noundef nonnull align 8 dereferenceable(152) %0, ptr noundef nonnull align 8 dereferenceable(8) @_ZSt4cout)
  br label %18

18:                                               ; preds = %17, %2
  %.not = icmp eq ptr %1, null
  br i1 %.not, label %.critedge, label %19

19:                                               ; preds = %18
  %20 = getelementptr inbounds i8, ptr %1, i64 8
  %21 = load ptr, ptr %20, align 8
  %22 = icmp eq ptr %21, null
  br i1 %22, label %.critedge, label %26

.critedge:                                        ; preds = %18, %19
  %23 = call noundef nonnull align 8 dereferenceable(112) ptr @_ZN7V3Error19v3errorPrepFileLineB5cxx11E11V3ErrorCodePKcib(i8 4, ptr noundef nonnull @.str.557, i32 noundef 665, i1 noundef zeroext false)
  %24 = call noundef nonnull align 8 dereferenceable(112) ptr @_ZN7V3Error10v3errorStrB5cxx11Ev()
  %25 = call noundef nonnull align 8 dereferenceable(8) ptr @_ZStlsISt11char_traitsIcEERSt13basic_ostreamIcT_ES5_PKc(ptr noundef nonnull align 8 dereferenceable(8) %24, ptr noundef nonnull @.str.620)
  call void @_ZNK7AstNode15v3errorEndFatalERNSt7__cxx1119basic_ostringstreamIcSt11char_traitsIcESaIcEEE(ptr noundef nonnull align 8 dereferenceable(152) %0, ptr noundef nonnull align 8 dereferenceable(112) %25) #25
  unreachable

26:                                               ; preds = %19
  %27 = getelementptr inbounds i8, ptr %0, i64 16
  %28 = load ptr, ptr %27, align 8
  %.not31 = icmp eq ptr %28, null
  br i1 %.not31, label %33, label %29

29:                                               ; preds = %26
  %30 = call noundef nonnull align 8 dereferenceable(112) ptr @_ZN7V3Error19v3errorPrepFileLineB5cxx11E11V3ErrorCodePKcib(i8 4, ptr noundef nonnull @.str.557, i32 noundef 666, i1 noundef zeroext false)
  %31 = call noundef nonnull align 8 dereferenceable(112) ptr @_ZN7V3Error10v3errorStrB5cxx11Ev()
  %32 = call noundef nonnull align 8 dereferenceable(8) ptr @_ZStlsISt11char_traitsIcEERSt13basic_ostreamIcT_ES5_PKc(ptr noundef nonnull align 8 dereferenceable(8) %31, ptr noundef nonnull @.str.621)
  call void @_ZNK7AstNode15v3errorEndFatalERNSt7__cxx1119basic_ostringstreamIcSt11char_traitsIcESaIcEEE(ptr noundef nonnull align 8 dereferenceable(152) %0, ptr noundef nonnull align 8 dereferenceable(112) %32) #25
  unreachable

33:                                               ; preds = %26
  %34 = load i64, ptr @_ZN7AstNode12s_editCntGblE, align 8
  %35 = add i64 %34, 1
  store i64 %35, ptr @_ZN7AstNode12s_editCntGblE, align 8
  %36 = call noundef i32 @_ZL5debugv()
  %37 = icmp sgt i32 %36, 8
  br i1 %37, label %38, label %40

38:                                               ; preds = %33
  call void @_ZNK10VNRelinker4dumpERSo(ptr noundef nonnull align 8 dereferenceable(32) %1, ptr noundef nonnull align 8 dereferenceable(8) @_ZSt4cout)
  %39 = call noundef nonnull align 8 dereferenceable(8) ptr @_ZNSolsEPFRSoS_E(ptr noundef nonnull align 8 dereferenceable(8) @_ZSt4cout, ptr noundef nonnull @_ZSt4endlIcSt11char_traitsIcEERSt13basic_ostreamIT_T0_ES6_)
  br label %40

40:                                               ; preds = %38, %33
  %41 = load ptr, ptr %20, align 8
  %42 = getelementptr inbounds i8, ptr %1, i64 24
  %43 = load i8, ptr %42, align 8
  switch i8 %43, label %53 [
    i8 1, label %44
    i8 2, label %45
    i8 3, label %47
    i8 4, label %49
    i8 5, label %51
  ]

44:                                               ; preds = %40
  call void @_ZN7AstNode11addNextHereEPS_(ptr noundef nonnull align 8 dereferenceable(152) %41, ptr noundef nonnull %0)
  br label %57

45:                                               ; preds = %40
  %46 = getelementptr inbounds i8, ptr %41, i64 24
  call void @_ZN7AstNode13relinkOneLinkERPS_S0_(ptr noundef nonnull align 8 dereferenceable(8) %46, ptr noundef nonnull %0)
  br label %57

47:                                               ; preds = %40
  %48 = getelementptr inbounds i8, ptr %41, i64 32
  call void @_ZN7AstNode13relinkOneLinkERPS_S0_(ptr noundef nonnull align 8 dereferenceable(8) %48, ptr noundef nonnull %0)
  br label %57

49:                                               ; preds = %40
  %50 = getelementptr inbounds i8, ptr %41, i64 40
  call void @_ZN7AstNode13relinkOneLinkERPS_S0_(ptr noundef nonnull align 8 dereferenceable(8) %50, ptr noundef nonnull %0)
  br label %57

51:                                               ; preds = %40
  %52 = getelementptr inbounds i8, ptr %41, i64 48
  call void @_ZN7AstNode13relinkOneLinkERPS_S0_(ptr noundef nonnull align 8 dereferenceable(8) %52, ptr noundef nonnull %0)
  br label %57

53:                                               ; preds = %40
  %54 = call noundef nonnull align 8 dereferenceable(112) ptr @_ZN7V3Error19v3errorPrepFileLineB5cxx11E11V3ErrorCodePKcib(i8 4, ptr noundef nonnull @.str.557, i32 noundef 684, i1 noundef zeroext false)
  %55 = call noundef nonnull align 8 dereferenceable(112) ptr @_ZN7V3Error10v3errorStrB5cxx11Ev()
  %56 = call noundef nonnull align 8 dereferenceable(8) ptr @_ZStlsISt11char_traitsIcEERSt13basic_ostreamIcT_ES5_PKc(ptr noundef nonnull align 8 dereferenceable(8) %55, ptr noundef nonnull @.str.624)
  call void @_ZNK7AstNode15v3errorEndFatalERNSt7__cxx1119basic_ostringstreamIcSt11char_traitsIcESaIcEEE(ptr noundef nonnull align 8 dereferenceable(152) %0, ptr noundef nonnull align 8 dereferenceable(112) %56) #25
  unreachable

57:                                               ; preds = %51, %49, %47, %45, %44
  store ptr %41, ptr %27, align 8
  store ptr null, ptr %20, align 8
  %58 = getelementptr inbounds i8, ptr %1, i64 16
  %59 = load ptr, ptr %58, align 8
  %.not32 = icmp eq ptr %59, null
  br i1 %.not32, label %62, label %60

60:                                               ; preds = %57
  %61 = getelementptr inbounds i8, ptr %0, i64 56
  store ptr %59, ptr %61, align 8
  store ptr %0, ptr %59, align 8
  br label %62

62:                                               ; preds = %60, %57
  store ptr null, ptr %20, align 8
  ret void
}